(lp1
(dp2
I0
(ipreindex
node
p3
(dp4
S'kidsindex'
p5
(lp6
I1
asS'word'
p7
S'ROOT'
p8
sS'parent'
p9
(lp10
sS'parentindex'
p11
I0
sS'ind'
p12
I-1
sS'finished'
p13
I0
sS'selfindex'
p14
I0
sS'kidsword'
p15
(lp16
S'where'
p17
asS'is_word'
p18
I1
sS'label'
p19
S''
sbsI1
(ipreindex
node
p20
(dp21
g5
(lp22
sg7
g17
sg9
g3
sg11
I0
sg12
I-1
sg13
I0
sg14
I1
sg15
(lp23
sg18
I1
sg19
S', root'
p24
sbsa.